target datalayout = "e-m:e-p270:32:32-p271:32:32-p272:64:64-i64:64-i128:128-f80:128-n8:16:32:64-S128"
target triple = "x86_64-pc-linux-gnu"

%"struct.std::_Vector_base.593" = type { %"struct.std::_Vector_base<std::vector<El>, std::allocator<std::vector<El>>>::_Vector_impl" }
%"struct.std::_Vector_base<std::vector<El>, std::allocator<std::vector<El>>>::_Vector_impl" = type { %"struct.std::_Vector_base<std::vector<El>, std::allocator<std::vector<El>>>::_Vector_impl_data" }
%"struct.std::_Vector_base<std::vector<El>, std::allocator<std::vector<El>>>::_Vector_impl_data" = type { ptr, ptr, ptr }

; Function Attrs: mustprogress nounwind optsize uwtable
define internal void @_ZNSt15__new_allocatorISt6vectorIZL38nanobind_init_test_stl_bind_vector_extRN8nanobind7module_EE2ElSaIS4_EEEC2ERKS7_(ptr noundef nonnull align 1 dereferenceable(1) %0, ptr noundef nonnull align 1 dereferenceable(1) %1) unnamed_addr #8 align 2 {
  %3 = alloca ptr, align 8
  %4 = alloca ptr, align 8
  store ptr %0, ptr %3, align 8, !tbaa !867
  store ptr %1, ptr %4, align 8, !tbaa !867
  ret void
}

; Function Attrs: mustprogress nounwind optsize uwtable
define internal void @_ZNSt12_Vector_baseISt6vectorIZL38nanobind_init_test_stl_bind_vector_extRN8nanobind7module_EE2ElSaIS4_EESaIS6_EE17_Vector_impl_dataC2EOS9_(ptr noundef nonnull align 8 dereferenceable(24) %0, ptr noundef nonnull align 8 dereferenceable(24) %1) unnamed_addr #8 align 2 {
  %3 = alloca ptr, align 8
  %4 = alloca ptr, align 8
  store ptr %0, ptr %3, align 8, !tbaa !873
  store ptr %1, ptr %4, align 8, !tbaa !873
  %5 = load ptr, ptr %3, align 8
  %6 = getelementptr inbounds nuw %"struct.std::_Vector_base<std::vector<El>, std::allocator<std::vector<El>>>::_Vector_impl_data", ptr %5, i32 0, i32 0
  %7 = load ptr, ptr %4, align 8, !tbaa !873
  %8 = getelementptr inbounds nuw %"struct.std::_Vector_base<std::vector<El>, std::allocator<std::vector<El>>>::_Vector_impl_data", ptr %7, i32 0, i32 0
  %9 = load ptr, ptr %8, align 8, !tbaa !860
  store ptr %9, ptr %6, align 8, !tbaa !860
  %10 = getelementptr inbounds nuw %"struct.std::_Vector_base<std::vector<El>, std::allocator<std::vector<El>>>::_Vector_impl_data", ptr %5, i32 0, i32 1
  %11 = load ptr, ptr %4, align 8, !tbaa !873
  %12 = getelementptr inbounds nuw %"struct.std::_Vector_base<std::vector<El>, std::allocator<std::vector<El>>>::_Vector_impl_data", ptr %11, i32 0, i32 1
  %13 = load ptr, ptr %12, align 8, !tbaa !862
  store ptr %13, ptr %10, align 8, !tbaa !862
  %14 = getelementptr inbounds nuw %"struct.std::_Vector_base<std::vector<El>, std::allocator<std::vector<El>>>::_Vector_impl_data", ptr %5, i32 0, i32 2
  %15 = load ptr, ptr %4, align 8, !tbaa !873
  %16 = getelementptr inbounds nuw %"struct.std::_Vector_base<std::vector<El>, std::allocator<std::vector<El>>>::_Vector_impl_data", ptr %15, i32 0, i32 2
  %17 = load ptr, ptr %16, align 8, !tbaa !870
  store ptr %17, ptr %14, align 8, !tbaa !870
  %18 = load ptr, ptr %4, align 8, !tbaa !873
  %19 = getelementptr inbounds nuw %"struct.std::_Vector_base<std::vector<El>, std::allocator<std::vector<El>>>::_Vector_impl_data", ptr %18, i32 0, i32 2
  store ptr null, ptr %19, align 8, !tbaa !870
  %20 = load ptr, ptr %4, align 8, !tbaa !873
  %21 = getelementptr inbounds nuw %"struct.std::_Vector_base<std::vector<El>, std::allocator<std::vector<El>>>::_Vector_impl_data", ptr %20, i32 0, i32 1
  store ptr null, ptr %21, align 8, !tbaa !862
  %22 = load ptr, ptr %4, align 8, !tbaa !873
  %23 = getelementptr inbounds nuw %"struct.std::_Vector_base<std::vector<El>, std::allocator<std::vector<El>>>::_Vector_impl_data", ptr %22, i32 0, i32 0
  store ptr null, ptr %23, align 8, !tbaa !860
  ret void
}

; Function Attrs: mustprogress nounwind optsize uwtable
define internal void @_ZNSaISt6vectorIZL38nanobind_init_test_stl_bind_vector_extRN8nanobind7module_EE2ElSaIS3_EEEC2ERKS6_(ptr noundef nonnull align 1 dereferenceable(1) %0, ptr noundef nonnull align 1 dereferenceable(1) %1) unnamed_addr #8 align 2 {
  %3 = alloca ptr, align 8
  %4 = alloca ptr, align 8
  store ptr %0, ptr %3, align 8, !tbaa !863
  store ptr %1, ptr %4, align 8, !tbaa !863
  %5 = load ptr, ptr %3, align 8
  %6 = load ptr, ptr %4, align 8, !tbaa !863
  call void @_ZNSt15__new_allocatorISt6vectorIZL38nanobind_init_test_stl_bind_vector_extRN8nanobind7module_EE2ElSaIS4_EEEC2ERKS7_(ptr noundef nonnull align 1 dereferenceable(1) %5, ptr noundef nonnull align 1 dereferenceable(1) %6) #22
  ret void
}

; Function Attrs: mustprogress nounwind optsize uwtable
define internal void @_ZNSt12_Vector_baseISt6vectorIZL38nanobind_init_test_stl_bind_vector_extRN8nanobind7module_EE2ElSaIS4_EESaIS6_EE12_Vector_implC2EOS9_(ptr noundef nonnull align 8 dereferenceable(24) %0, ptr noundef nonnull align 8 dereferenceable(24) %1) unnamed_addr #8 align 2 {
  %3 = alloca ptr, align 8
  %4 = alloca ptr, align 8
  store ptr %0, ptr %3, align 8, !tbaa !871
  store ptr %1, ptr %4, align 8, !tbaa !871
  %5 = load ptr, ptr %3, align 8
  %6 = load ptr, ptr %4, align 8, !tbaa !871
  call void @_ZNSaISt6vectorIZL38nanobind_init_test_stl_bind_vector_extRN8nanobind7module_EE2ElSaIS3_EEEC2ERKS6_(ptr noundef nonnull align 1 dereferenceable(1) %5, ptr noundef nonnull align 1 dereferenceable(1) %6) #22
  %7 = load ptr, ptr %4, align 8, !tbaa !871
  call void @_ZNSt12_Vector_baseISt6vectorIZL38nanobind_init_test_stl_bind_vector_extRN8nanobind7module_EE2ElSaIS4_EESaIS6_EE17_Vector_impl_dataC2EOS9_(ptr noundef nonnull align 8 dereferenceable(24) %5, ptr noundef nonnull align 8 dereferenceable(24) %7) #22
  ret void
}

; Function Attrs: mustprogress nounwind optsize uwtable
define internal void @_ZNSt12_Vector_baseISt6vectorIZL38nanobind_init_test_stl_bind_vector_extRN8nanobind7module_EE2ElSaIS4_EESaIS6_EEC2EOS8_(ptr noundef nonnull align 8 dereferenceable(24) %0, ptr noundef nonnull align 8 dereferenceable(24) %1) unnamed_addr #8 align 2 {
  %3 = alloca ptr, align 8
  %4 = alloca ptr, align 8
  store ptr %0, ptr %3, align 8, !tbaa !865
  store ptr %1, ptr %4, align 8, !tbaa !865
  %5 = load ptr, ptr %3, align 8
  %6 = getelementptr inbounds nuw %"struct.std::_Vector_base.593", ptr %5, i32 0, i32 0
  %7 = load ptr, ptr %4, align 8, !tbaa !865
  %8 = getelementptr inbounds nuw %"struct.std::_Vector_base.593", ptr %7, i32 0, i32 0
  call void @_ZNSt12_Vector_baseISt6vectorIZL38nanobind_init_test_stl_bind_vector_extRN8nanobind7module_EE2ElSaIS4_EESaIS6_EE12_Vector_implC2EOS9_(ptr noundef nonnull align 8 dereferenceable(24) %6, ptr noundef nonnull align 8 dereferenceable(24) %8) #22
  ret void
}

; Function Attrs: mustprogress nounwind optsize uwtable
define internal void @_ZNSt6vectorIS_IZL38nanobind_init_test_stl_bind_vector_extRN8nanobind7module_EE2ElSaIS3_EESaIS5_EEC2EOS7_(ptr noundef nonnull align 8 dereferenceable(24) %0, ptr noundef nonnull align 8 dereferenceable(24) %1) unnamed_addr #8 align 2 {
  %3 = alloca ptr, align 8
  %4 = alloca ptr, align 8
  store ptr %0, ptr %3, align 8, !tbaa !858
  store ptr %1, ptr %4, align 8, !tbaa !858
  %5 = load ptr, ptr %3, align 8
  %6 = load ptr, ptr %4, align 8, !tbaa !858
  call void @_ZNSt12_Vector_baseISt6vectorIZL38nanobind_init_test_stl_bind_vector_extRN8nanobind7module_EE2ElSaIS4_EESaIS6_EEC2EOS8_(ptr noundef nonnull align 8 dereferenceable(24) %5, ptr noundef nonnull align 8 dereferenceable(24) %6) #22
  ret void
}

; Function Attrs: mustprogress nounwind optsize uwtable
define internal void @_ZN8nanobind6detail9wrap_moveISt6vectorIS2_IZL38nanobind_init_test_stl_bind_vector_extRNS_7module_EE2ElSaIS5_EESaIS7_EEEEvPvSA_(ptr noundef %0, ptr noundef %1) #8 {
  %3 = alloca ptr, align 8
  %4 = alloca ptr, align 8
  store ptr %0, ptr %3, align 8, !tbaa !55
  store ptr %1, ptr %4, align 8, !tbaa !55
  %5 = load ptr, ptr %3, align 8, !tbaa !55
  %6 = load ptr, ptr %4, align 8, !tbaa !55
  call void @_ZNSt6vectorIS_IZL38nanobind_init_test_stl_bind_vector_extRN8nanobind7module_EE2ElSaIS3_EESaIS5_EEC2EOS7_(ptr noundef nonnull align 8 dereferenceable(24) %5, ptr noundef nonnull align 8 dereferenceable(24) %6) #22
  ret void
}